; ModuleID = '17/827.c'
source_filename = "17/827.c"
target datalayout = "e-m:e-p270:32:32-p271:32:32-p272:64:64-i64:64-f80:128-n8:16:32:64-S128"
target triple = "x86_64-pc-linux-gnu"

@.str = private unnamed_addr constant [2 x i8] c"$\00", align 1
@.str.1 = private unnamed_addr constant [2 x i8] c" \00", align 1
@.str.2 = private unnamed_addr constant [2 x i8] c"?\00", align 1
@.str.3 = private unnamed_addr constant [2 x i8] c"\0A\00", align 1
@.str.4 = private unnamed_addr constant [3 x i8] c"%s\00", align 1

; Function Attrs: noinline nounwind uwtable
define dso_local void @output(i32* %0, i32 %1) #0 {
  %3 = alloca i32*, align 8
  %4 = alloca i32, align 4
  %5 = alloca i32, align 4
  store i32* %0, i32** %3, align 8
  store i32 %1, i32* %4, align 4
  store i32 0, i32* %5, align 4
  br label %6

6:                                                ; preds = %23, %2
  %7 = load i32, i32* %5, align 4
  %8 = load i32, i32* %4, align 4
  %9 = icmp slt i32 %7, %8
  br i1 %9, label %10, label %26

10:                                               ; preds = %6
  %11 = load i32*, i32** %3, align 8
  %12 = load i32, i32* %5, align 4
  %13 = sext i32 %12 to i64
  %14 = getelementptr inbounds i32, i32* %11, i64 %13
  %15 = load i32, i32* %14, align 4
  switch i32 %15, label %22 [
    i32 1, label %16
    i32 0, label %18
    i32 -1, label %20
  ]

16:                                               ; preds = %10
  %17 = call i32 (i8*, ...) @printf(i8* getelementptr inbounds ([2 x i8], [2 x i8]* @.str, i64 0, i64 0))
  br label %22

18:                                               ; preds = %10
  %19 = call i32 (i8*, ...) @printf(i8* getelementptr inbounds ([2 x i8], [2 x i8]* @.str.1, i64 0, i64 0))
  br label %22

20:                                               ; preds = %10
  %21 = call i32 (i8*, ...) @printf(i8* getelementptr inbounds ([2 x i8], [2 x i8]* @.str.2, i64 0, i64 0))
  br label %22

22:                                               ; preds = %10, %20, %18, %16
  br label %23

23:                                               ; preds = %22
  %24 = load i32, i32* %5, align 4
  %25 = add nsw i32 %24, 1
  store i32 %25, i32* %5, align 4
  br label %6

26:                                               ; preds = %6
  %27 = call i32 (i8*, ...) @printf(i8* getelementptr inbounds ([2 x i8], [2 x i8]* @.str.3, i64 0, i64 0))
  ret void
}

declare dso_local i32 @printf(i8*, ...) #1

; Function Attrs: noinline nounwind uwtable
define dso_local void @trans(i8* %0, i32* %1, i32 %2) #0 {
  %4 = alloca i8*, align 8
  %5 = alloca i32*, align 8
  %6 = alloca i32, align 4
  %7 = alloca i32, align 4
  %8 = alloca [200 x i32], align 16
  %9 = alloca i32, align 4
  store i8* %0, i8** %4, align 8
  store i32* %1, i32** %5, align 8
  store i32 %2, i32* %6, align 4
  store i32 -1, i32* %9, align 4
  %10 = load i8*, i8** %4, align 8
  %11 = call i64 @strlen(i8* %10) #3
  %12 = trunc i64 %11 to i32
  store i32 %12, i32* %6, align 4
  store i32 0, i32* %7, align 4
  br label %13

13:                                               ; preds = %82, %3
  %14 = load i32, i32* %7, align 4
  %15 = load i32, i32* %6, align 4
  %16 = icmp slt i32 %14, %15
  br i1 %16, label %17, label %85

17:                                               ; preds = %13
  %18 = load i8*, i8** %4, align 8
  %19 = load i32, i32* %7, align 4
  %20 = sext i32 %19 to i64
  %21 = getelementptr inbounds i8, i8* %18, i64 %20
  %22 = load i8, i8* %21, align 1
  %23 = sext i8 %22 to i32
  %24 = icmp ne i32 %23, 40
  br i1 %24, label %25, label %38

25:                                               ; preds = %17
  %26 = load i8*, i8** %4, align 8
  %27 = load i32, i32* %7, align 4
  %28 = sext i32 %27 to i64
  %29 = getelementptr inbounds i8, i8* %26, i64 %28
  %30 = load i8, i8* %29, align 1
  %31 = sext i8 %30 to i32
  %32 = icmp ne i32 %31, 41
  br i1 %32, label %33, label %38

33:                                               ; preds = %25
  %34 = load i32*, i32** %5, align 8
  %35 = load i32, i32* %7, align 4
  %36 = sext i32 %35 to i64
  %37 = getelementptr inbounds i32, i32* %34, i64 %36
  store i32 0, i32* %37, align 4
  br label %81

38:                                               ; preds = %25, %17
  %39 = load i8*, i8** %4, align 8
  %40 = load i32, i32* %7, align 4
  %41 = sext i32 %40 to i64
  %42 = getelementptr inbounds i8, i8* %39, i64 %41
  %43 = load i8, i8* %42, align 1
  %44 = sext i8 %43 to i32
  %45 = icmp eq i32 %44, 40
  br i1 %45, label %46, label %57

46:                                               ; preds = %38
  %47 = load i32, i32* %9, align 4
  %48 = add nsw i32 %47, 1
  store i32 %48, i32* %9, align 4
  %49 = load i32, i32* %7, align 4
  %50 = load i32, i32* %9, align 4
  %51 = sext i32 %50 to i64
  %52 = getelementptr inbounds [200 x i32], [200 x i32]* %8, i64 0, i64 %51
  store i32 %49, i32* %52, align 4
  %53 = load i32*, i32** %5, align 8
  %54 = load i32, i32* %7, align 4
  %55 = sext i32 %54 to i64
  %56 = getelementptr inbounds i32, i32* %53, i64 %55
  store i32 1, i32* %56, align 4
  br label %80

57:                                               ; preds = %38
  %58 = load i32, i32* %9, align 4
  %59 = icmp sgt i32 %58, -1
  br i1 %59, label %60, label %74

60:                                               ; preds = %57
  %61 = load i32*, i32** %5, align 8
  %62 = load i32, i32* %9, align 4
  %63 = sext i32 %62 to i64
  %64 = getelementptr inbounds [200 x i32], [200 x i32]* %8, i64 0, i64 %63
  %65 = load i32, i32* %64, align 4
  %66 = sext i32 %65 to i64
  %67 = getelementptr inbounds i32, i32* %61, i64 %66
  store i32 0, i32* %67, align 4
  %68 = load i32, i32* %9, align 4
  %69 = add nsw i32 %68, -1
  store i32 %69, i32* %9, align 4
  %70 = load i32*, i32** %5, align 8
  %71 = load i32, i32* %7, align 4
  %72 = sext i32 %71 to i64
  %73 = getelementptr inbounds i32, i32* %70, i64 %72
  store i32 0, i32* %73, align 4
  br label %79

74:                                               ; preds = %57
  %75 = load i32*, i32** %5, align 8
  %76 = load i32, i32* %7, align 4
  %77 = sext i32 %76 to i64
  %78 = getelementptr inbounds i32, i32* %75, i64 %77
  store i32 -1, i32* %78, align 4
  br label %79

79:                                               ; preds = %74, %60
  br label %80

80:                                               ; preds = %79, %46
  br label %81

81:                                               ; preds = %80, %33
  br label %82

82:                                               ; preds = %81
  %83 = load i32, i32* %7, align 4
  %84 = add nsw i32 %83, 1
  store i32 %84, i32* %7, align 4
  br label %13

85:                                               ; preds = %13
  ret void
}

; Function Attrs: nounwind readonly
declare dso_local i64 @strlen(i8*) #2

; Function Attrs: noinline nounwind uwtable
define dso_local void @input() #0 {
  %1 = alloca [200 x i8], align 16
  %2 = alloca [200 x i32], align 16
  %3 = alloca i32, align 4
  br label %4

4:                                                ; preds = %8, %0
  %5 = getelementptr inbounds [200 x i8], [200 x i8]* %1, i64 0, i64 0
  %6 = call i32 (i8*, ...) @__isoc99_scanf(i8* getelementptr inbounds ([3 x i8], [3 x i8]* @.str.4, i64 0, i64 0), i8* %5)
  %7 = icmp ne i32 %6, -1
  br i1 %7, label %8, label %19

8:                                                ; preds = %4
  %9 = getelementptr inbounds [200 x i8], [200 x i8]* %1, i64 0, i64 0
  %10 = call i64 @strlen(i8* %9) #3
  %11 = trunc i64 %10 to i32
  store i32 %11, i32* %3, align 4
  %12 = getelementptr inbounds [200 x i8], [200 x i8]* %1, i64 0, i64 0
  %13 = call i32 @puts(i8* %12)
  %14 = getelementptr inbounds [200 x i8], [200 x i8]* %1, i64 0, i64 0
  %15 = getelementptr inbounds [200 x i32], [200 x i32]* %2, i64 0, i64 0
  %16 = load i32, i32* %3, align 4
  call void @trans(i8* %14, i32* %15, i32 %16)
  %17 = getelementptr inbounds [200 x i32], [200 x i32]* %2, i64 0, i64 0
  %18 = load i32, i32* %3, align 4
  call void @output(i32* %17, i32 %18)
  br label %4

19:                                               ; preds = %4
  ret void
}

declare dso_local i32 @__isoc99_scanf(i8*, ...) #1

declare dso_local i32 @puts(i8*) #1

; Function Attrs: noinline nounwind uwtable
define dso_local i32 @main() #0 {
  call void @input()
  ret i32 0
}


!llvm.module.flags = !{!0}
!llvm.ident = !{!1}

!0 = !{i32 1, !"wchar_size", i32 4}
!1 = !{!"clang version 10.0.0-4ubuntu1 "}
